target datalayout = "e-m:e-p270:32:32-p271:32:32-p272:64:64-i64:64-i128:128-f80:128-n8:16:32:64-S128"
target triple = "x86_64-pc-linux-gnu"

%struct.AVTXContext = type { i32, i32, ptr, ptr, ptr, ptr, [4 x ptr], i32, [4 x ptr], ptr, i32, i64, i32, float, double, ptr }

; Function Attrs: nounwind uwtable
define i32 @ff_tx_gen_inplace_map(ptr noundef %0, i32 noundef %1) #0 {
  %3 = alloca i32, align 4
  %4 = alloca ptr, align 8
  %5 = alloca i32, align 4
  %6 = alloca ptr, align 8
  %7 = alloca i32, align 4
  %8 = alloca i32, align 4
  %9 = alloca i32, align 4
  %10 = alloca i32, align 4
  %11 = alloca i32, align 4
  %12 = alloca i32, align 4
  store ptr %0, ptr %4, align 8, !tbaa !4
  store i32 %1, ptr %5, align 4, !tbaa !11
  call void @llvm.lifetime.start.p0(i64 8, ptr %6) #11
  call void @llvm.lifetime.start.p0(i64 4, ptr %7) #11
  store i32 0, ptr %7, align 4, !tbaa !11
  %13 = load ptr, ptr %4, align 8, !tbaa !4
  %14 = getelementptr inbounds nuw %struct.AVTXContext, ptr %13, i32 0, i32 5
  %15 = load ptr, ptr %14, align 8, !tbaa !42
  %16 = icmp ne ptr %15, null
  br i1 %16, label %17, label %24

17:                                               ; preds = %2
  %18 = load ptr, ptr %4, align 8, !tbaa !4
  %19 = getelementptr inbounds nuw %struct.AVTXContext, ptr %18, i32 0, i32 5
  %20 = load ptr, ptr %19, align 8, !tbaa !42
  %21 = getelementptr inbounds nuw %struct.AVTXContext, ptr %20, i32 0, i32 2
  %22 = load ptr, ptr %21, align 8, !tbaa !20
  %23 = icmp ne ptr %22, null
  br i1 %23, label %25, label %24

24:                                               ; preds = %17, %2
  store i32 -22, ptr %3, align 4
  store i32 1, ptr %8, align 4
  br label %123

25:                                               ; preds = %17
  %26 = load i32, ptr %5, align 4, !tbaa !11
  %27 = sext i32 %26 to i64
  %28 = mul i64 %27, 4
  %29 = call noalias ptr @av_mallocz(i64 noundef %28)
  %30 = load ptr, ptr %4, align 8, !tbaa !4
  %31 = getelementptr inbounds nuw %struct.AVTXContext, ptr %30, i32 0, i32 2
  store ptr %29, ptr %31, align 8, !tbaa !20
  %32 = icmp ne ptr %29, null
  br i1 %32, label %34, label %33

33:                                               ; preds = %25
  store i32 -12, ptr %3, align 4
  store i32 1, ptr %8, align 4
  br label %123

34:                                               ; preds = %25
  %35 = load ptr, ptr %4, align 8, !tbaa !4
  %36 = getelementptr inbounds nuw %struct.AVTXContext, ptr %35, i32 0, i32 5
  %37 = load ptr, ptr %36, align 8, !tbaa !42
  %38 = getelementptr inbounds nuw %struct.AVTXContext, ptr %37, i32 0, i32 2
  %39 = load ptr, ptr %38, align 8, !tbaa !20
  store ptr %39, ptr %6, align 8, !tbaa !32
  call void @llvm.lifetime.start.p0(i64 4, ptr %9) #11
  store i32 1, ptr %9, align 4, !tbaa !11
  br label %40

40:                                               ; preds = %112, %34
  %41 = load i32, ptr %9, align 4, !tbaa !11
  %42 = load ptr, ptr %4, align 8, !tbaa !4
  %43 = getelementptr inbounds nuw %struct.AVTXContext, ptr %42, i32 0, i32 0
  %44 = load i32, ptr %43, align 8, !tbaa !13
  %45 = icmp slt i32 %41, %44
  br i1 %45, label %47, label %46

46:                                               ; preds = %40
  store i32 2, ptr %8, align 4
  call void @llvm.lifetime.end.p0(i64 4, ptr %9) #11
  br label %115

47:                                               ; preds = %40
  call void @llvm.lifetime.start.p0(i64 4, ptr %10) #11
  %48 = load ptr, ptr %6, align 8, !tbaa !32
  %49 = load i32, ptr %9, align 4, !tbaa !11
  %50 = sext i32 %49 to i64
  %51 = getelementptr inbounds i32, ptr %48, i64 %50
  %52 = load i32, ptr %51, align 4, !tbaa !11
  store i32 %52, ptr %10, align 4, !tbaa !11
  call void @llvm.lifetime.start.p0(i64 4, ptr %11) #11
  store i32 0, ptr %11, align 4, !tbaa !11
  %53 = load i32, ptr %10, align 4, !tbaa !11
  %54 = load i32, ptr %9, align 4, !tbaa !11
  %55 = icmp sle i32 %53, %54
  br i1 %55, label %56, label %57

56:                                               ; preds = %47
  store i32 4, ptr %8, align 4
  br label %109

57:                                               ; preds = %47
  br label %58

58:                                               ; preds = %94, %57
  call void @llvm.lifetime.start.p0(i64 4, ptr %12) #11
  store i32 0, ptr %12, align 4, !tbaa !11
  br label %59

59:                                               ; preds = %76, %58
  %60 = load i32, ptr %12, align 4, !tbaa !11
  %61 = load i32, ptr %7, align 4, !tbaa !11
  %62 = icmp slt i32 %60, %61
  br i1 %62, label %64, label %63

63:                                               ; preds = %59
  store i32 7, ptr %8, align 4
  br label %79

64:                                               ; preds = %59
  %65 = load i32, ptr %10, align 4, !tbaa !11
  %66 = load ptr, ptr %4, align 8, !tbaa !4
  %67 = getelementptr inbounds nuw %struct.AVTXContext, ptr %66, i32 0, i32 2
  %68 = load ptr, ptr %67, align 8, !tbaa !20
  %69 = load i32, ptr %12, align 4, !tbaa !11
  %70 = sext i32 %69 to i64
  %71 = getelementptr inbounds i32, ptr %68, i64 %70
  %72 = load i32, ptr %71, align 4, !tbaa !11
  %73 = icmp eq i32 %65, %72
  br i1 %73, label %74, label %75

74:                                               ; preds = %64
  store i32 1, ptr %11, align 4, !tbaa !11
  store i32 7, ptr %8, align 4
  br label %79

75:                                               ; preds = %64
  br label %76

76:                                               ; preds = %75
  %77 = load i32, ptr %12, align 4, !tbaa !11
  %78 = add nsw i32 %77, 1
  store i32 %78, ptr %12, align 4, !tbaa !11
  br label %59, !llvm.loop !43

79:                                               ; preds = %74, %63
  call void @llvm.lifetime.end.p0(i64 4, ptr %12) #11
  br label %80

80:                                               ; preds = %79
  %81 = load ptr, ptr %6, align 8, !tbaa !32
  %82 = load i32, ptr %10, align 4, !tbaa !11
  %83 = sext i32 %82 to i64
  %84 = getelementptr inbounds i32, ptr %81, i64 %83
  %85 = load i32, ptr %84, align 4, !tbaa !11
  store i32 %85, ptr %10, align 4, !tbaa !11
  br label %86

86:                                               ; preds = %80
  %87 = load i32, ptr %10, align 4, !tbaa !11
  %88 = load i32, ptr %9, align 4, !tbaa !11
  %89 = icmp ne i32 %87, %88
  br i1 %89, label %90, label %94

90:                                               ; preds = %86
  %91 = load i32, ptr %11, align 4, !tbaa !11
  %92 = icmp ne i32 %91, 0
  %93 = xor i1 %92, true
  br label %94

94:                                               ; preds = %90, %86
  %95 = phi i1 [ false, %86 ], [ %93, %90 ]
  br i1 %95, label %58, label %96, !llvm.loop !44

96:                                               ; preds = %94
  %97 = load i32, ptr %11, align 4, !tbaa !11
  %98 = icmp ne i32 %97, 0
  br i1 %98, label %108, label %99

99:                                               ; preds = %96
  %100 = load i32, ptr %9, align 4, !tbaa !11
  %101 = load ptr, ptr %4, align 8, !tbaa !4
  %102 = getelementptr inbounds nuw %struct.AVTXContext, ptr %101, i32 0, i32 2
  %103 = load ptr, ptr %102, align 8, !tbaa !20
  %104 = load i32, ptr %7, align 4, !tbaa !11
  %105 = add nsw i32 %104, 1
  store i32 %105, ptr %7, align 4, !tbaa !11
  %106 = sext i32 %104 to i64
  %107 = getelementptr inbounds i32, ptr %103, i64 %106
  store i32 %100, ptr %107, align 4, !tbaa !11
  br label %108

108:                                              ; preds = %99, %96
  store i32 0, ptr %8, align 4
  br label %109

109:                                              ; preds = %108, %56
  call void @llvm.lifetime.end.p0(i64 4, ptr %11) #11
  call void @llvm.lifetime.end.p0(i64 4, ptr %10) #11
  %110 = load i32, ptr %8, align 4
  switch i32 %110, label %125 [
    i32 0, label %111
    i32 4, label %112
  ]

111:                                              ; preds = %109
  br label %112

112:                                              ; preds = %111, %109
  %113 = load i32, ptr %9, align 4, !tbaa !11
  %114 = add nsw i32 %113, 1
  store i32 %114, ptr %9, align 4, !tbaa !11
  br label %40, !llvm.loop !45

115:                                              ; preds = %46
  %116 = load ptr, ptr %4, align 8, !tbaa !4
  %117 = getelementptr inbounds nuw %struct.AVTXContext, ptr %116, i32 0, i32 2
  %118 = load ptr, ptr %117, align 8, !tbaa !20
  %119 = load i32, ptr %7, align 4, !tbaa !11
  %120 = add nsw i32 %119, 1
  store i32 %120, ptr %7, align 4, !tbaa !11
  %121 = sext i32 %119 to i64
  %122 = getelementptr inbounds i32, ptr %118, i64 %121
  store i32 0, ptr %122, align 4, !tbaa !11
  store i32 0, ptr %3, align 4
  store i32 1, ptr %8, align 4
  br label %123

123:                                              ; preds = %115, %33, %24
  call void @llvm.lifetime.end.p0(i64 4, ptr %7) #11
  call void @llvm.lifetime.end.p0(i64 8, ptr %6) #11
  %124 = load i32, ptr %3, align 4
  ret i32 %124

125:                                              ; preds = %109
  unreachable
}