; Function Attrs: nounwind uwtable
define range(i32 -22, 1) i32 @ff_tx_gen_inplace_map(ptr noundef captures(none) %0, i32 noundef %1) local_unnamed_addr #0 {
  %3 = getelementptr inbounds nuw i8, ptr %0, i64 32
  %4 = load ptr, ptr %3, align 8, !tbaa !38
  %.not = icmp eq ptr %4, null
  br i1 %.not, label %38, label %5

5:                                                ; preds = %2
  %6 = getelementptr inbounds nuw i8, ptr %4, i64 8
  %7 = load ptr, ptr %6, align 8, !tbaa !16
  %.not38 = icmp eq ptr %7, null
  br i1 %.not38, label %38, label %8

8:                                                ; preds = %5
  %9 = sext i32 %1 to i64
  %10 = shl nsw i64 %9, 2
  %11 = tail call noalias ptr @av_mallocz(i64 noundef %10) #13
  %12 = getelementptr inbounds nuw i8, ptr %0, i64 8
  store ptr %11, ptr %12, align 8, !tbaa !16
  %.not39 = icmp eq ptr %11, null
  br i1 %.not39, label %38, label %13

13:                                               ; preds = %8
  %14 = load ptr, ptr %3, align 8, !tbaa !38
  %15 = getelementptr inbounds nuw i8, ptr %14, i64 8
  %16 = load ptr, ptr %15, align 8, !tbaa !16
  %17 = load i32, ptr %0, align 8, !tbaa !4
  %18 = icmp sgt i32 %17, 1
  br i1 %18, label %.lr.ph.preheader, label %._crit_edge

.lr.ph.preheader:                                 ; preds = %13
  %wide.trip.count57 = zext nneg i32 %17 to i64
  br label %.lr.ph

._crit_edge.loopexit:                             ; preds = %.thread45
  %19 = sext i32 %.133 to i64
  br label %._crit_edge

._crit_edge:                                      ; preds = %._crit_edge.loopexit, %13
  %.032.lcssa = phi i64 [ 0, %13 ], [ %19, %._crit_edge.loopexit ]
  %20 = getelementptr inbounds i32, ptr %11, i64 %.032.lcssa
  store i32 0, ptr %20, align 4, !tbaa !20
  br label %38

.lr.ph:                                           ; preds = %.lr.ph.preheader, %.thread45
  %indvars.iv54 = phi i64 [ 1, %.lr.ph.preheader ], [ %indvars.iv.next55, %.thread45 ]
  %.03249 = phi i32 [ 0, %.lr.ph.preheader ], [ %.133, %.thread45 ]
  %21 = getelementptr inbounds nuw i32, ptr %16, i64 %indvars.iv54
  %22 = load i32, ptr %21, align 4, !tbaa !20
  %23 = sext i32 %22 to i64
  %.not40 = icmp slt i64 %indvars.iv54, %23
  br i1 %.not40, label %.preheader, label %.thread45

.preheader:                                       ; preds = %.lr.ph
  %24 = icmp sgt i32 %.03249, 0
  br i1 %24, label %.lr.ph.us.preheader, label %.split.us

.lr.ph.us.preheader:                              ; preds = %.preheader
  %wide.trip.count = zext nneg i32 %.03249 to i64
  br label %.lr.ph.us

.lr.ph.us:                                        ; preds = %.lr.ph.us.preheader, %._crit_edge.us
  %.030.us = phi i32 [ %32, %._crit_edge.us ], [ %22, %.lr.ph.us.preheader ]
  br label %26

25:                                               ; preds = %26
  %indvars.iv.next = add nuw nsw i64 %indvars.iv, 1
  %exitcond.not = icmp eq i64 %indvars.iv.next, %wide.trip.count
  br i1 %exitcond.not, label %._crit_edge.us, label %26, !llvm.loop !39

26:                                               ; preds = %.lr.ph.us, %25
  %indvars.iv = phi i64 [ 0, %.lr.ph.us ], [ %indvars.iv.next, %25 ]
  %27 = getelementptr inbounds nuw i32, ptr %11, i64 %indvars.iv
  %28 = load i32, ptr %27, align 4, !tbaa !20
  %29 = icmp eq i32 %.030.us, %28
  br i1 %29, label %.thread45, label %25

._crit_edge.us:                                   ; preds = %25
  %30 = sext i32 %.030.us to i64
  %31 = getelementptr inbounds i32, ptr %16, i64 %30
  %32 = load i32, ptr %31, align 4, !tbaa !20
  %33 = zext i32 %32 to i64
  %.not47.us = icmp eq i64 %indvars.iv54, %33
  br i1 %.not47.us, label %.split.us, label %.lr.ph.us, !llvm.loop !40

.split.us:                                        ; preds = %._crit_edge.us, %.preheader
  %34 = add nsw i32 %.03249, 1
  %35 = sext i32 %.03249 to i64
  %36 = getelementptr inbounds i32, ptr %11, i64 %35
  %37 = trunc nuw nsw i64 %indvars.iv54 to i32
  store i32 %37, ptr %36, align 4, !tbaa !20
  br label %.thread45

.thread45:                                        ; preds = %26, %.split.us, %.lr.ph
  %.133 = phi i32 [ %.03249, %.lr.ph ], [ %34, %.split.us ], [ %.03249, %26 ]
  %indvars.iv.next55 = add nuw nsw i64 %indvars.iv54, 1
  %exitcond58.not = icmp eq i64 %indvars.iv.next55, %wide.trip.count57
  br i1 %exitcond58.not, label %._crit_edge.loopexit, label %.lr.ph, !llvm.loop !41

38:                                               ; preds = %8, %2, %5, %._crit_edge
  %.034 = phi i32 [ 0, %._crit_edge ], [ -22, %5 ], [ -22, %2 ], [ -12, %8 ]
  ret i32 %.034
}